target datalayout = "e-m:e-p270:32:32-p271:32:32-p272:64:64-i64:64-i128:128-f80:128-n8:16:32:64-S128"
target triple = "x86_64-pc-linux-gnu"

%"class.llvm::TypeSize" = type { %"class.llvm::details::FixedOrScalableQuantity.base", [7 x i8] }
%"class.llvm::details::FixedOrScalableQuantity.base" = type <{ i64, i8 }>
%"struct.llvm::EVT" = type { %"class.llvm::MVT", ptr }
%"class.llvm::MVT" = type { i16 }

; Function Attrs: mustprogress nounwind uwtable
define linkonce_odr hidden { i64, i8 } @_ZNK4llvm3MVT13getSizeInBitsEv(ptr noundef nonnull align 2 dereferenceable(2) %0) #0 comdat align 2 {
  %2 = alloca %"class.llvm::TypeSize", align 8
  %3 = alloca ptr, align 8
  store ptr %0, ptr %3, align 8
  %4 = load ptr, ptr %3, align 8
  %5 = getelementptr inbounds nuw %"class.llvm::MVT", ptr %4, i32 0, i32 0
  %6 = load i16, ptr %5, align 2
  %7 = zext i16 %6 to i32
  switch i32 %7, label %14 [
    i32 0, label %8
    i32 1, label %9
    i32 510, label %10
    i32 506, label %11
    i32 509, label %11
    i32 508, label %11
    i32 507, label %11
    i32 511, label %11
    i32 504, label %12
    i32 505, label %13
  ]

8:                                                ; preds = %1
  unreachable

9:                                                ; preds = %1
  unreachable

10:                                               ; preds = %1
  unreachable

11:                                               ; preds = %1, %1, %1, %1, %1
  unreachable

12:                                               ; preds = %1
  unreachable

13:                                               ; preds = %1
  unreachable

14:                                               ; preds = %1
  %15 = getelementptr inbounds nuw %"class.llvm::MVT", ptr %4, i32 0, i32 0
  %16 = load i16, ptr %15, align 2
  %17 = zext i16 %16 to i32
  %18 = sub nsw i32 %17, 1
  %19 = sext i32 %18 to i64
  %20 = getelementptr inbounds [240 x %"class.llvm::TypeSize"], ptr @_ZZNK4llvm3MVT13getSizeInBitsEvE9SizeTable, i64 0, i64 %19
  call void @llvm.memcpy.p0.p0.i64(ptr align 8 %2, ptr align 16 %20, i64 16, i1 false)
  %21 = load { i64, i8 }, ptr %2, align 8
  ret { i64, i8 } %21
}

; Function Attrs: mustprogress nounwind uwtable
define linkonce_odr hidden noundef zeroext i1 @_ZNK4llvm3EVT8isSimpleEv(ptr noundef nonnull align 8 dereferenceable(16) %0) #0 comdat align 2 {
  %2 = alloca ptr, align 8
  store ptr %0, ptr %2, align 8
  %3 = load ptr, ptr %2, align 8
  %4 = getelementptr inbounds nuw %"struct.llvm::EVT", ptr %3, i32 0, i32 0
  %5 = getelementptr inbounds nuw %"class.llvm::MVT", ptr %4, i32 0, i32 0
  %6 = load i16, ptr %5, align 8
  %7 = zext i16 %6 to i32
  %8 = icmp ne i32 %7, 0
  ret i1 %8
}

; Function Attrs: mustprogress nounwind uwtable
define linkonce_odr hidden { i64, i8 } @_ZNK4llvm3EVT13getSizeInBitsEv(ptr noundef nonnull align 8 dereferenceable(16) %0) #0 comdat align 2 {
  %2 = alloca %"class.llvm::TypeSize", align 8
  %3 = alloca ptr, align 8
  %4 = alloca { i64, i8 }, align 8
  %5 = alloca { i64, i8 }, align 8
  store ptr %0, ptr %3, align 8
  %6 = load ptr, ptr %3, align 8
  %7 = call noundef zeroext i1 @_ZNK4llvm3EVT8isSimpleEv(ptr noundef nonnull align 8 dereferenceable(16) %6)
  br i1 %7, label %8, label %11

8:                                                ; preds = %1
  %9 = getelementptr inbounds nuw %"struct.llvm::EVT", ptr %6, i32 0, i32 0
  %10 = call { i64, i8 } @_ZNK4llvm3MVT13getSizeInBitsEv(ptr noundef nonnull align 2 dereferenceable(2) %9)
  store { i64, i8 } %10, ptr %4, align 8
  call void @llvm.memcpy.p0.p0.i64(ptr align 8 %2, ptr align 8 %4, i64 9, i1 false)
  br label %13

11:                                               ; preds = %1
  %12 = call { i64, i8 } @_ZNK4llvm3EVT21getExtendedSizeInBitsEv(ptr noundef nonnull align 8 dereferenceable(16) %6) #13
  store { i64, i8 } %12, ptr %5, align 8
  call void @llvm.memcpy.p0.p0.i64(ptr align 8 %2, ptr align 8 %5, i64 9, i1 false)
  br label %13

13:                                               ; preds = %11, %8
  %14 = load { i64, i8 }, ptr %2, align 8
  ret { i64, i8 } %14
}

; Function Attrs: mustprogress nounwind uwtable
define dso_local noundef zeroext i1 @_ZNK4llvm19AArch64CallLowering26isTypeIsValidForThisReturnENS_3EVTE(ptr noundef nonnull align 8 dereferenceable(16) %0, i16 %1, ptr %2) unnamed_addr #0 align 2 {
  %4 = alloca %"struct.llvm::EVT", align 8
  %5 = alloca ptr, align 8
  %6 = alloca %"class.llvm::TypeSize", align 8
  %7 = alloca { i64, i8 }, align 8
  %8 = getelementptr inbounds nuw { i16, ptr }, ptr %4, i32 0, i32 0
  store i16 %1, ptr %8, align 8
  %9 = getelementptr inbounds nuw { i16, ptr }, ptr %4, i32 0, i32 1
  store ptr %2, ptr %9, align 8
  store ptr %0, ptr %5, align 8
  %10 = call { i64, i8 } @_ZNK4llvm3EVT13getSizeInBitsEv(ptr noundef nonnull align 8 dereferenceable(16) %4)
  store { i64, i8 } %10, ptr %7, align 8
  call void @llvm.memcpy.p0.p0.i64(ptr align 8 %6, ptr align 8 %7, i64 9, i1 false)
  %11 = call noundef i64 @_ZNK4llvm8TypeSizecvmEv(ptr noundef nonnull align 8 dereferenceable(9) %6)
  %12 = icmp eq i64 %11, 64
  ret i1 %12
}