; Function Attrs: mustprogress nounwind uwtable
define dso_local noundef zeroext i1 @_ZNK4llvm19AArch64CallLowering26isTypeIsValidForThisReturnENS_3EVTE(ptr nonnull readnone align 8 captures(none) %0, i16 %1, ptr %2) unnamed_addr #1 align 2 {
  %4 = alloca %"struct.llvm::EVT", align 8
  %5 = alloca %"class.llvm::TypeSize", align 8
  store i16 %1, ptr %4, align 8
  %6 = getelementptr inbounds nuw i8, ptr %4, i64 8
  store ptr %2, ptr %6, align 8
  %.not.i = icmp eq i16 %1, 0
  br i1 %.not.i, label %11, label %7

7:                                                ; preds = %3
  %8 = zext i16 %1 to i64
  %9 = add nsw i64 %8, -1
  %10 = getelementptr inbounds [240 x %"class.llvm::TypeSize"], ptr @_ZZNK4llvm3MVT13getSizeInBitsEvE9SizeTable, i64 0, i64 %9
  %.sroa.0.0.copyload.i.i = load i64, ptr %10, align 16
  %.sroa.2.0..sroa_idx.i.i = getelementptr inbounds nuw i8, ptr %10, i64 8
  %.sroa.2.0.copyload.i.i = load i8, ptr %.sroa.2.0..sroa_idx.i.i, align 8
  %.fca.0.insert.i.i = insertvalue { i64, i8 } poison, i64 %.sroa.0.0.copyload.i.i, 0
  %.fca.1.insert.i.i = insertvalue { i64, i8 } %.fca.0.insert.i.i, i8 %.sroa.2.0.copyload.i.i, 1
  br label %_ZNK4llvm3EVT13getSizeInBitsEv.exit

11:                                               ; preds = %3
  %12 = call { i64, i8 } @_ZNK4llvm3EVT21getExtendedSizeInBitsEv(ptr noundef nonnull align 8 dereferenceable(16) %4) #19
  br label %_ZNK4llvm3EVT13getSizeInBitsEv.exit

_ZNK4llvm3EVT13getSizeInBitsEv.exit:              ; preds = %7, %11
  %.pn.i = phi { i64, i8 } [ %.fca.1.insert.i.i, %7 ], [ %12, %11 ]
  %.fca.0.extract = extractvalue { i64, i8 } %.pn.i, 0
  %.fca.1.extract = extractvalue { i64, i8 } %.pn.i, 1
  store i64 %.fca.0.extract, ptr %5, align 8
  %.sroa.2.0..sroa_idx = getelementptr inbounds nuw i8, ptr %5, i64 8
  store i8 %.fca.1.extract, ptr %.sroa.2.0..sroa_idx, align 8
  %13 = call noundef i64 @_ZNK4llvm8TypeSizecvmEv(ptr noundef nonnull align 8 dereferenceable(9) %5) #15
  %14 = icmp eq i64 %13, 64
  ret i1 %14
}